target datalayout = "e-m:e-p270:32:32-p271:32:32-p272:64:64-i64:64-i128:128-f80:128-n8:16:32:64-S128"
target triple = "x86_64-pc-linux-gnu"

@TopTransactionContext = external global ptr, align 8
@on_commit_wakeup_workers_subids = internal global ptr null, align 8
@CurrentMemoryContext = external global ptr, align 8

; Function Attrs: inlinehint nounwind uwtable
define internal ptr @MemoryContextSwitchTo(ptr noundef %0) #3 {
  %2 = alloca ptr, align 8
  %3 = alloca ptr, align 8
  store ptr %0, ptr %2, align 8
  call void @llvm.lifetime.start.p0(i64 8, ptr %3) #12
  %4 = load ptr, ptr @CurrentMemoryContext, align 8
  store ptr %4, ptr %3, align 8
  %5 = load ptr, ptr %2, align 8
  store ptr %5, ptr @CurrentMemoryContext, align 8
  %6 = load ptr, ptr %3, align 8
  call void @llvm.lifetime.end.p0(i64 8, ptr %3) #12
  ret ptr %6
}

; Function Attrs: nounwind uwtable
define dso_local void @LogicalRepWorkersWakeupAtCommit(i32 noundef %0) #0 {
  %2 = alloca i32, align 4
  %3 = alloca ptr, align 8
  store i32 %0, ptr %2, align 4
  call void @llvm.lifetime.start.p0(i64 8, ptr %3) #12
  %4 = load ptr, ptr @TopTransactionContext, align 8
  %5 = call ptr @MemoryContextSwitchTo(ptr noundef %4)
  store ptr %5, ptr %3, align 8
  %6 = load ptr, ptr @on_commit_wakeup_workers_subids, align 8
  %7 = load i32, ptr %2, align 4
  %8 = call ptr @list_append_unique_oid(ptr noundef %6, i32 noundef %7)
  store ptr %8, ptr @on_commit_wakeup_workers_subids, align 8
  %9 = load ptr, ptr %3, align 8
  %10 = call ptr @MemoryContextSwitchTo(ptr noundef %9)
  call void @llvm.lifetime.end.p0(i64 8, ptr %3) #12
  ret void
}