; Function Attrs: nounwind uwtable
define dso_local void @LogicalRepWorkersWakeupAtCommit(i32 noundef %0) local_unnamed_addr #0 {
  %2 = load ptr, ptr @TopTransactionContext, align 8
  %3 = load ptr, ptr @CurrentMemoryContext, align 8
  store ptr %2, ptr @CurrentMemoryContext, align 8
  %4 = load ptr, ptr @on_commit_wakeup_workers_subids, align 8
  %5 = tail call ptr @list_append_unique_oid(ptr noundef %4, i32 noundef %0) #17
  store ptr %5, ptr @on_commit_wakeup_workers_subids, align 8
  store ptr %3, ptr @CurrentMemoryContext, align 8
  ret void
}